; Function Attrs: mustprogress uwtable
define void @_ZN6icu_776number4impl17blueprint_helpers20generateFractionStemEiiRNS_13UnicodeStringER10UErrorCode(i32 noundef %0, i32 noundef %1, ptr noundef nonnull align 8 dereferenceable(64) %2, ptr nonnull readnone align 4 captures(none) %3) local_unnamed_addr #1 personality ptr @__gxx_personality_v0 {
  %5 = alloca i16, align 2
  %6 = alloca i16, align 2
  %7 = or i32 %1, %0
  %or.cond = icmp eq i32 %7, 0
  br i1 %or.cond, label %8, label %12

8:                                                ; preds = %4
  %9 = invoke noundef nonnull align 8 dereferenceable(64) ptr @_ZN6icu_7713UnicodeString8doAppendEPKDsii(ptr noundef nonnull align 8 dereferenceable(64) %2, ptr noundef nonnull @.str.35, i32 noundef 0, i32 noundef -1)
          to label %_ZN6icu_7713UnicodeString6appendENS_14ConstChar16PtrEi.exit unwind label %10

_ZN6icu_7713UnicodeString6appendENS_14ConstChar16PtrEi.exit: ; preds = %8
  tail call void asm sideeffect "", "rm,~{memory},~{dirflag},~{fpsr},~{flags}"(ptr nonnull @.str.35) #18, !srcloc !15
  br label %_ZN12_GLOBAL__N_114appendMultipleERN6icu_7713UnicodeStringEii.exit16

10:                                               ; preds = %8
  %11 = landingpad { ptr, i32 }
          cleanup
  tail call void asm sideeffect "", "rm,~{memory},~{dirflag},~{fpsr},~{flags}"(ptr nonnull @.str.35) #18, !srcloc !15
  resume { ptr, i32 } %11

12:                                               ; preds = %4
  call void @llvm.lifetime.start.p0(i64 2, ptr nonnull %6)
  store i16 46, ptr %6, align 2, !tbaa !19
  %13 = call noundef nonnull align 8 dereferenceable(64) ptr @_ZN6icu_7713UnicodeString8doAppendEPKDsii(ptr noundef nonnull align 8 dereferenceable(64) %2, ptr noundef nonnull %6, i32 noundef 0, i32 noundef 1)
  call void @llvm.lifetime.end.p0(i64 2, ptr nonnull %6)
  %14 = icmp sgt i32 %0, 0
  br i1 %14, label %.lr.ph.i, label %_ZN12_GLOBAL__N_114appendMultipleERN6icu_7713UnicodeStringEii.exit

.lr.ph.i:                                         ; preds = %12, %.lr.ph.i
  %.04.i = phi i32 [ %16, %.lr.ph.i ], [ 0, %12 ]
  %15 = call noundef nonnull align 8 dereferenceable(64) ptr @_ZN6icu_7713UnicodeString6appendEi(ptr noundef nonnull align 8 dereferenceable(64) %2, i32 noundef 48)
  %16 = add nuw nsw i32 %.04.i, 1
  %exitcond.not.i = icmp eq i32 %16, %0
  br i1 %exitcond.not.i, label %_ZN12_GLOBAL__N_114appendMultipleERN6icu_7713UnicodeStringEii.exit, label %.lr.ph.i, !llvm.loop !131

_ZN12_GLOBAL__N_114appendMultipleERN6icu_7713UnicodeStringEii.exit: ; preds = %.lr.ph.i, %12
  %17 = icmp eq i32 %1, -1
  br i1 %17, label %18, label %20

18:                                               ; preds = %_ZN12_GLOBAL__N_114appendMultipleERN6icu_7713UnicodeStringEii.exit
  call void @llvm.lifetime.start.p0(i64 2, ptr nonnull %5)
  store i16 42, ptr %5, align 2, !tbaa !19
  %19 = call noundef nonnull align 8 dereferenceable(64) ptr @_ZN6icu_7713UnicodeString8doAppendEPKDsii(ptr noundef nonnull align 8 dereferenceable(64) %2, ptr noundef nonnull %5, i32 noundef 0, i32 noundef 1)
  call void @llvm.lifetime.end.p0(i64 2, ptr nonnull %5)
  br label %_ZN12_GLOBAL__N_114appendMultipleERN6icu_7713UnicodeStringEii.exit16

20:                                               ; preds = %_ZN12_GLOBAL__N_114appendMultipleERN6icu_7713UnicodeStringEii.exit
  %21 = sub nsw i32 %1, %0
  %22 = icmp sgt i32 %21, 0
  br i1 %22, label %.lr.ph.i13, label %_ZN12_GLOBAL__N_114appendMultipleERN6icu_7713UnicodeStringEii.exit16

.lr.ph.i13:                                       ; preds = %20, %.lr.ph.i13
  %.04.i14 = phi i32 [ %24, %.lr.ph.i13 ], [ 0, %20 ]
  %23 = call noundef nonnull align 8 dereferenceable(64) ptr @_ZN6icu_7713UnicodeString6appendEi(ptr noundef nonnull align 8 dereferenceable(64) %2, i32 noundef 35)
  %24 = add nuw nsw i32 %.04.i14, 1
  %exitcond.not.i15 = icmp eq i32 %24, %21
  br i1 %exitcond.not.i15, label %_ZN12_GLOBAL__N_114appendMultipleERN6icu_7713UnicodeStringEii.exit16, label %.lr.ph.i13, !llvm.loop !131

_ZN12_GLOBAL__N_114appendMultipleERN6icu_7713UnicodeStringEii.exit16: ; preds = %.lr.ph.i13, %20, %18, %_ZN6icu_7713UnicodeString6appendENS_14ConstChar16PtrEi.exit
  ret void
}